(lp0
V.
p1
aV,
p2
aVI
p3
aVThe
p4
aVplace
p5
aV!
p6
aVchocolate
p7
aVfood
p8
aVgood
p9
aVWe
p10
aVservice
p11
aVn't
p12
aVorder
p13
aVcoffee
p14
aVcome
p15
aVgreat
p16
aVlike
p17
aV(
p18
aV)
p19
aVtime
p20
aVmenu
p21
aV-
p22
aV's
p23
aVbreakfast
p24
aVIt
p25
aV...
p26
aVbad
p27
aVrestaurant
p28
aVnice
p29
aVdish
p30
aVdrink
p31
aVdessert
p32
aVMax
p33
aVAviv
p34
aVTel
p35
aVminute
p36
aVThis
p37
aVwait
p38
aVu
p39
aVreally
p40
aVBrenner
p41
aVmake
p42
aVask
p43
aVeat
p44
aVtry
p45
aVtable
p46
aVlook
p47
aVvisit
p48
aVserve
p49
aVfriend
p50
aVwant
p51
aV've
p52
aVsalad
p53
aVsweet
p54
aVsit
p55
aV``
p56
aVtaste
p57
aV''
p58
aVhot
p59
aVtasty
p60
aVGreat
p61
aVexperience
p62
aVThey
p63
aVlunch
p64
aVwaiter
p65
aVenjoy
p66
aVmeal
p67
aVprice
p68
aVcream
p69
aVsmall
p70
aVstaff
p71
aVA
p72
aVsay
p73
aVCafe
p74
aVbest
p75
aVleave
p76
aVcafe
p77
aVdelicious
p78
aVlove
p79
aVIf
p80
aVpeople
p81
aVlocation
p82
aVwaitress
p83
aVice
p84
aVarrive
p85
aV:
p86
aVfresh
p87
aVatmosphere
p88
aVsandwich
p89
aVtell
p90
aVspecial
p91
aV2
p92
aVBut
p93
aVfriendly
p94
aV?
p95
aVrecommend
p96
aVshop
p97
aVAnd
p98
aVdinner
p99
aVMy
p100
aVterrible
p101
aVYou
p102
aVpastry
p103
aV'm
p104
aVthing
p105
aVuse
p106
aVday
p107
aVbread
p108
aVnight
p109
aVThere
p110
aVdesert
p111
aVlittle
p112
aVway
p113
aVmorning
p114
aVService
p115
aVfamily
p116
aVcold
p117
aV10
p118
aVexpect
p119
aVbig
p120
aVAfter
p121
aVcake
p122
aVbranch
p123
aVexcellent
p124
aVwater
p125
aVaverage
p126
aVreview
p127
aVIsrael
p128
aVwonderful
p129
aVmarket
p130
aVlong
p131
aVslow
p132
aVWhen
p133
aV20
p134
aVChocolate
p135
aVbit
p136
aVIsraeli
p137
aVarea
p138
aVworth
p139
aVawful
p140
aVbar
p141
aVoffer
p142
aVmediocre
p143
aVport
p144
aVdifferent
p145
aVlot
p146
aVlarge
p147
aVVery
p148
aVthink
p149
aVkid
p150
aVchoice
p151
aVegg
p152
aVIn
p153
aVkind
p154
aVpretty
p155
aVquality
p156
aVknow
p157
aVbuy
p158
aVportion
p159
aVWent
p160
aVbusy
p161
aVmain
p162
aVfruit
p163
aVmoney
p164
aV4
p165
aVNo
p166
aVpoor
p167
aVclean
p168
aVcup
p169
aVinclude
p170
aV&
p171
aVwalk
p172
aVnew
p173
aVpizza
p174
aVplate
p175
aVamazing
p176
aVtoday
p177
aVquite
p178
aVpay
p179
aVfondue
p180
aVok
p181
aVfun
p182
aV're
p183
aVNice
p184
aVstop
p185
aVneed
p186
aVhome
p187
aVend
p188
aVstreet
p189
aVlovely
p190
aVcourse
p191
aVDo
p192
aVseat
p193
aV3
p194
aVtea
p195
aVmilkshake
p196
aVhour
p197
aVshare
p198
aVjuice
p199
aVFood
p200
aVexpensive
p201
aVNot
p202
aV;
p203
aVlight
p204
aVbring
p205
aVvalue
p206
aVtel
p207
aVregular
p208
aVspeak
p209
aVchild
p210
aV30
p211
aVright
p212
aVafternoon
p213
aVamaze
p214
aVspot
p215
aVEverything
p216
aVbeach
p217
aVyear
p218
aV15
p219
aVlater
p220
aVhungry
p221
aVoutside
p222
aVdirty
p223
aVwife
p224
aVfeel
p225
aVmiss
p226
aVoption
p227
aVFor
p228
aVhigh
p229
aVcounter
p230
aVstart
p231
aVmin
p232
aVsecond
p233
aVmusic
p234
aVwarm
p235
aVwaffle
p236
aVwatch
p237
aVvegetable
p238
aVold
p239
aVmanager
p240
aVquick
p241
aVchange
p242
aVaviv
p243
aVcheese
p244
aVespecially
p245
aVcheap
p246
aVbusiness
p247
aVforget
p248
aVpast
p249
aVSo
p250
aVattitude
p251
aVsimple
p252
aVcouple
p253
aVperfect
p254
aVwrite
p255
aVstuff
p256
aVGood
p257
aVca
p258
aVlocate
p259
aVItalian
p260
aVAll
p261
aVrich
p262
aVaway
p263
aVvegan
p264
aVrun
p265
aVOur
p266
aVcute
p267
aVhalf
p268
aVattentive
p269
aVweek
p270
aVfinish
p271
aVrest
p272
aVserver
p273
aVrude
p274
aVlate
p275
aVunderstand
p276
aVTheir
p277
aVreceive
p278
aVshekel
p279
aVowner
p280
aVSaturday
p281
aVchicken
p282
aVdecent
p283
aVJaffa
p284
aVfantastic
p285
aVglass
p286
aVwrong
p287
aVtourist
p288
aVbreak
p289
aVnear
p290
aVbrenner
p291
aVcrowd
p292
aV'd
p293
aVpotato
p294
aVchain
p295
aVyummy
p296
aVcool
p297
aVhealthy
p298
aVbirthday
p299
aVcare
p300
aVEven
p301
aVwhite
p302
aVsaw
p303
aVsure
p304
aVevening
p305
aVworld
p306
aVauthentic
p307
aVactually
p308
aVbase
p309
aVnumber
p310
aVsalmon
p311
aVHad
p312
aVreal
p313
aVOK
p314
aVcustomer
p315
aVdidnt
p316
aVvariety
p317
aVlover
p318
aVselection
p319
aVNIS
p320
aVtype
p321
aVroom
p322
aVwork
p323
aVdisappoint
p324
aVstandard
p325
aVsoda
p326
aVdefinitely
p327
aVIts
p328
aVwo
p329
aVtiny
p330
aVgift
p331
aVtip
p332
aVchair
p333
aVchip
p334
aV1
p335
aVinteresting
p336
aVShe
p337
aVsize
p338
aVcity
p339
aVhorrible
p340
aVreturn
p341
aVromantic
p342
aVsmile
p343
aVdecide
p344
aVneighborhood
p345
aVdesign
p346
aVvegetarian
p347
aVstore
p348
aVextremely
p349
aVfine
p350
aVhostess
p351
aVpack
p352
aV%
p353
aVlet
p354
aVStaff
p355
aVvibe
p356
aV'
p357
aVlocal
p358
aVgrab
p359
aVkosher
p360
aVtreat
p361
aVpresent
p362
aVFriday
p363
aVadd
p364
aVRothschild
p365
aVproblem
p366
aVstay
p367
aVwine
p368
aVfree
p369
aVcalorie
p370
aVsugar
p371
aVmug
p372
aVbeer
p373
aVFirst
p374
aVhappy
p375
aVmilk
p376
aVitem
p377
aVsoup
p378
aVwinter
p379
aVproduct
p380
aVmax
p381
aVremember
p382
aVgroup
p383
aVRamat
p384
aVcelebrate
p385
aVtasteless
p386
aVmiddle
p387
aVPort
p388
aVTerrible
p389
aVdisappointed
p390
aVCame
p391
aVfavorite
p392
aVtoilet
p393
aVpick
p394
aVpossible
p395
aVtown
p396
aVhuge
p397
aV25
p398
aVhard
p399
aVShaked
p400
aVdisappointing
p401
aVoverprice
p402
aVline
p403
aVAs
p404
aVAt
p405
aVmeet
p406
aVorange
p407
aVOn
p408
aVattention
p409
aVCoffee
p410
aVavoid
p411
aVpasta
p412
aVhappen
p413
aVdaughter
p414
aVmess
p415
aVmean
p416
aVExcellent
p417
aVThen
p418
aVtoast
p419
aVfry
p420
aVTry
p421
aVhear
p422
aVJust
p423
aVcost
p424
aVinside
p425
aVambience
p426
aVtotally
p427
aVdark
p428
aVlack
p429
aVstyle
p430
aVPoor
p431
aVfamous
p432
aVclose
p433
aVprobably
p434
aVsimply
p435
aVWas
p436
aVperson
p437
aVDefinitely
p438
aVHighly
p439
aVNothing
p440
aVAroma
p441
aVTo
p442
aVago
p443
aVsend
p444
aVingredient
p445
aVcozy
p446
aV8
p447
aVchoose
p448
aVbother
p449
aVcomfortable
p450
aVface
p451
aVfact
p452
aVWould
p453
aVwaste
p454
aVcoffe
p455
aV45
p456
aV40
p457
aVitalian
p458
aVReally
p459
aVquickly
p460
aVsorry
p461
aVadult
p462
aVanswer
p463
aVhang
p464
aVbitter
p465
aVfeeling
p466
aVkitchen
p467
aVsuppose
p468
aVmistake
p469
aVdisappear
p470
aVLulu
p471
aVeasy
p472
aVunique
p473
aV50
p474
aVdeal
p475
aVsuper
p476
aVconcept
p477
aVcook
p478
aVsign
p479
aVlive
p480
aVBen
p481
aVPizza
p482
aVcocktail
p483
aVcrepe
p484
aVshake
p485
aVfactory
p486
aVopen
p487
aVwide
p488
aVsunset
p489
aVcorner
p490
aVquiet
p491
aVsummer
p492
aVAmazing
p493
aVmarshmallow
p494
aVprepare
p495
aVlow
p496
aV5
p497
aVOverall
p498
aVcharge
p499
aVKosher
p500
aVbasically
p501
aVrefuse
p502
aVdream
p503
aVsauce
p504
aVBar
p505
aVfish
p506
aVidea
p507
aVpleasant
p508
aVstale
p509
aVparticularly
p510
aVFrench
p511
aVBoth
p512
aVEnglish
p513
aVyesterday
p514
aVearly
p515
aVspend
p516
aVhelpful
p517
aVignore
p518
aVchat
p519
aVdisgust
p520
aVtomato
p521
aVExpensive
p522
aVmention
p523
aVboring
p524
aVbagel
p525
aVfocaccia
p526
aVsnack
p527
aVAvoid
p528
aVwish
p529
aVstar
p530
aVfelt
p531
aVDoes
p532
aVvenue
p533
aVrequest
p534
aVherb
p535
aVdry
p536
aVAlso
p537
aVmachine
p538
aVavocado
p539
aVreasonable
p540
aVmini
p541
aVmind
p542
aVmint
p543
aVrecommended
p544
aVplenty
p545
aVrice
p546
aVnicely
p547
aVtwice
p548
aVTook
p549
aVapproach
p550
aVrefill
p551
aVCa
p552
aVlasagna
p553
aVhand
p554
aVdelight
p555
aVtuna
p556
aVprevious
p557
aVdesire
p558
aVremind
p559
aVBeen
p560
aVcreative
p561
aVBest
p562
aVtrue
p563
aVtrendy
p564
aVtrip
p565
aVfloor
p566
aVtin
p567
aVapology
p568
aVcertainly
p569
aVfinally
p570
aVbrownie
p571
aVdie
p572
aVfrench
p573
aVusually
p574
aVsharing
p575
aVheart
p576
aVtalk
p577
aVgirl
p578
aVcard
p579
aVhug
p580
aVinterior
p581
aVperformance
p582
aVbuffet
p583
aVtruly
p584
aVunusual
p585
aVbowl
p586
aVcheck
p587
aVoutdoor
p588
aVLocated
p589
aVNew
p590
aVpolite
p591
aVStopped
p592
aVSmall
p593
aVStreet
p594
aVoriginal
p595
aVmonth
p596
aVBrown
p597
aVfan
p598
aVburger
p599
aVOnly
p600
aVpass
p601
aVToo
p602
aVdoor
p603
aVshort
p604
aVpleasure
p605
aVshakshuka
p606
aVcomplain
p607
aVhouse
p608
aVissue
p609
aVdont
p610
aVbland
p611
aVTLV
p612
aVhotel
p613
aVplay
p614
aVWhile
p615
aVbody
p616
aVset
p617
aVsea
p618
aVpoint
p619
aVpricey
p620
aVdecadent
p621
aVItaly
p622
aVanymore
p623
aVconcoction
p624
aV$
p625
aVabsolutely
p626
aVrange
p627
aVEvery
p628
aVhair
p629
aVbeverage
p630
aVBasel
p631
aVoverpriced
p632
aVVisited
p633
aVstarter
p634
aVclient
p635
aVflea
p636
aVlentil
p637
aVcompletely
p638
aVmanagement
p639
aVtire
p640
aVlucky
p641
aVPrices
p642
aVOnce
p643
aVcontain
p644
aVview
p645
aVwall
p646
aVbrunch
p647
aVholiday
p648
aVBeach
p649
aVFriendly
p650
aVenglish
p651
aVusual
p652
aVBe
p653
aVgenerous
p654
aVUnfortunately
p655
aVHowever
p656
aVhost
p657
aVgluten
p658
aVpiece
p659
aV'll
p660
aVpatisserie
p661
aVpoorly
p662
aVwhatsoever
p663
aVGo
p664
aVchef
p665
aVfabulous
p666
aVSurprisingly
p667
aVhighly
p668
aVStay
p669
aVwarn
p670
aVdecoration
p671
aVword
p672
aVordinary
p673
aVfudge
p674
aVpurchase
p675
aVgreet
p676
aVgreen
p677
aVenter
p678
aVinnovative
p679
aVpersonal
p680
aVfix
p681
aVcombination
p682
aVsurprise
p683
aVgreasy
p684
aVloud
p685
aVopportunity
p686
aVpraline
p687
aV192
p688
aVTel-Aviv
p689
aVdog
p690
aVGova
p691
aVdespite
p692
aVBUT
p693
aVlife
p694
aVmushroom
p695
aVcraft
p696
aVsuggest
p697
aVFondue
p698
aVshout
p699
aVsave
p700
aVhat
p701
aVXoho
p702
aVtopping
p703
aVplus
p704
aVslightly
p705
aVson
p706
aVform
p707
aVflavour
p708
aVmold
p709
aVsmell
p710
aVwelcome
p711
aVdiet
p712
aVguy
p713
aVmelt
p714
aVweird
p715
aVWorst
p716
aVeffort
p717
aVactual
p718
aVdate
p719
aVfilthy
p720
aVgrandson
p721
aVinform
p722
aVtypical
p723
aVspace
p724
aVboulevard
p725
aVefficient
p726
aVdining
p727
aVRecommend
p728
aVnearly
p729
aVHaving
p730
aVhusband
p731
aVWaiters
p732
aVnotice
p733
aVNote
p734
aVoverdose
p735
aVflavor
p736
aVBelgian
p737
aVchoclate
p738
aVoverly
p739
aVfell
p740
aVstand
p741
aVroad
p742
aVfast
p743
aVHotel
p744
aVspice
p745
aVHouse
p746
aVHow
p747
aVdeserve
p748
aVtehina
p749
aVpresentation
p750
aVwoman
p751
aVfar
p752
aVheaven
p753
aV--
p754
aVlist
p755
aVBreakfast
p756
aVunprofessional
p757
aV6
p758
aVisrael
p759
aVhamburger
p760
aVaccept
p761
aVcrowded
p762
aVpatio
p763
aVWhat
p764
aVarrogant
p765
aVimagine
p766
aVRude
p767
aVlobby
p768
aVsyrup
p769
aVbelieve
p770
aVsell
p771
aVcharm
p772
aVPerfect
p773
aVvarious
p774
aVrave
p775
aVMost
p776
aVLevinsky
p777
aVOld
p778
aVMarket
p779
aVthats
p780
aVsurprised
p781
aVpopular
p782
aVeating
p783
aVhomemade
p784
aVinvite
p785
aVproperly
p786
aVdull
p787
aVIce
p788
aVdiverse
p789
aVYehuda
p790
aVmayonnaise
p791
aVprepared
p792
aVquinoa
p793
aVWaffle
p794
aVexist
p795
aVspoon
p796
aVEnjoy
p797
aVespresso
p798
aV35
p799
aVdoubt
p800
aVcappuccino
p801
aVLovely
p802
aVvaried
p803
aVinstead
p804
aVentree
p805
aVattend
p806
aVRoman
p807
aVtrap
p808
aVambiance
p809
aVice-cream
p810
aVexactly
p811
aVquiche
p812
aVclearly
p813
aVFlea
p814
aVunless
p815
aVSome
p816
aVoccasion
p817
aVYork
p818
aVemployee
p819
aVhope
p820
aVaddition
p821
aVpartner
p822
aVparty
p823
aVlately
p824
aVwet
p825
aVlose
p826
aVrecommendation
p827
aVSorry
p828
aVleaf
p829
aVliterally
p830
aVnoisy
p831
aVmatcha
p832
aVcrave
p833
aVbrand
p834
aVbalcony
p835
aVchocolat
p836
aVBoutique
p837
aVHahayal
p838
aVOrdered
p839
aVencounter
p840
aVwooden
p841
aVBeware
p842
aVspecially
p843
aVconsistent
p844
aVEventually
p845
aV+
p846
aVover-priced
p847
aVTuesday
p848
aVcredit
p849
aVsmoke
p850
aVsuitable
p851
aVrelax
p852
aVhole
p853
aVUnpleasant
p854
aVLord
p855
aVindifferent
p856
aVattract
p857
aVturn
p858
aVtravel
p859
aVhop
p860
aVdescription
p861
aVcroissant
p862
aVappreciate
p863
aVfeedback
p864
aVoven
p865
aVKids
p866
aVindulge
p867
aVIndeed
p868
aVfairly
p869
aVwhip
p870
aVgon
p871
aVheavenly
p872
aVlousy
p873
aVbite
p874
aVton
p875
aVairy
p876
aVhazelnut
p877
aVFun
p878
aVWaitress
p879
aVmatter
p880
aVmodern
p881
aVLandver
p882
aVwell-
p883
aVlunchtime
p884
aVrelatively
p885
aVconvenient
p886
aVrealy
p887
aVWish
p888
aVcoin
p889
aVexplain
p890
aVAsian
p891
aVwatermelon
p892
aVearn
p893
aVdisaster
p894
aVRecommended
p895
aVresult
p896
aVhorrendous
p897
aVyogurt
p898
aVCentral
p899
aVextent
p900
aVcountry
p901
aVargue
p902
aVtough
p903
aVnon
p904
aVbeetroot
p905
aVbathroom
p906
aVbeef
p907
aVbasic
p908
aVteenager
p909
aVexcite
p910
aVexception
p911
aVact
p912
aVhebrew
p913
aVMaybe
p914
aVManager
p915
aVyes
p916
aVSalads
p917
aVEspresso
p918
aVAlice
p919
aVburnt
p920
aVGetting
p921
aVLet
p922
aVHe
p923
aVrestorant
p924
aVcorn
p925
aVdiscount
p926
aVPlace
p927
aVRemo
p928
aVinedible
p929
aVsurround
p930
aVSERVICE
p931
aVaccommodate
p932
aVcreem
p933
aVsupport
p934
aVramat
p935
aVupset
p936
aVna
p937
aVsetting
p938
aVtest
p939
aVroll
p940
aVuneatable
p941
aVstore/restaurant
p942
aVweekend
p943
aVstick
p944
aVskip
p945
aVfocus
p946
aV/
p947
aVunpleasant
p948
aVstring
p949
aVbustle
p950
aVimpressive
p951
aVcooky
p952
aVdip
p953
aVregret
p954
aVdiscover
p955
aVOrange
p956
aVgnocchi
p957
aVpleased
p958
aVsatisfy
p959
aVentertain
p960
aVaddress
p961
aVBrenners
p962
aVbox
p963
aVboy
p964
aVNeve
p965
aVsuggestion
p966
aVprefer
p967
aVsalti
p968
aVpositive
p969
aVThese
p970
aVolive
p971
aVfigure
p972
aVsample
p973
aVBAD
p974
aVFaruk
p975
aVtill
p976
aVWhy
p977
aVsour
p978
aVlatte
p979
aVmembership
p980
aVman
p981
aVmaybe
p982
aVmainly
p983
aVunacceptable
p984
aVterrace
p985
aVsmoothie
p986
aVintroduce
p987
aVppl
p988
aVketchup
p989
aVwont
p990
aVcareless
p991
aVrock
p992
aVSave
p993
aVneighbourhood
p994
aVcorrect
p995
aVhonest
p996
aVdirectly
p997
aVdistrict
p998
aVridiculous
p999
aVDirty
p1000
aVboyfriend
p1001
aVunfortunately
p1002
aVBread
p1003
aVMain
p1004
aVBeit
p1005
aVbegin
p1006
aVforever
p1007
aVShakshuka
p1008
aVtooth
p1009
aVChef
p1010
aVshot
p1011
aVbright
p1012
aVcalamari
p1013
aVblack
p1014
aVDisappointing
p1015
aVLocation
p1016
aVwonder
p1017
aVisraeli
p1018
aVThat
p1019
aVaffordable
p1020
aVdedicate
p1021
aVdisappointment
p1022
aVpop
p1023
aVILS
p1024
aVconsider
p1025
aVboil
p1026
aVshopping
p1027
aVundercooked
p1028
aVsound
p1029
aVresturant
p1030
aVHillel
p1031
aVaspect
p1032
aVtouch
p1033
aVSeems
p1034
aVAlthough
p1035
aVsticky
p1036
aVread
p1037
aVinsist
p1038
aVmom
p1039
aVseating
p1040
aVSince
p1041
aVhipster
p1042
aVhustle
p1043
aVLater
p1044
aVroast
p1045
aVintimate
p1046
aVequivalent
p1047
aVpackage
p1048
aVmixed
p1049
aVAway
p1050
aVchoclates
p1051
aVRotshild
p1052
aVsyringe
p1053
aVNO
p1054
aVNY
p1055
aVspicy
p1056
aVcomplete
p1057
aVbenedict
p1058
aVomelet
p1059
aVrush
p1060
aVAve
p1061
aVpalate
p1062
aVgirlfriend
p1063
aVbuilding
p1064
aVplatter
p1065
aVTake
p1066
aVcareful
p1067
aVcheerful
p1068
aVsand
p1069
aVActually
p1070
aVsun
p1071
aVoverload
p1072
aVpublic
p1073
aVversion
p1074
aVTotally
p1075
aVexcuse
p1076
aVglad
p1077
aVgrill
p1078
aVmall
p1079
aVSO
p1080
aVbeautiful
p1081
aVcompare
p1082
aVcomfort
p1083
aVfondu
p1084
aVreplace
p1085
aVhelp
p1086
aVsoon
p1087
aVpaper
p1088
aVexact
p1089
aVOverpriced
p1090
aVshock
p1091
aVoil
p1092
aVflower
p1093
aVtiramisu
p1094
aVdefinately
p1095
aVextraordinary
p1096
aVreason
p1097
aVgourmet
p1098
aVdint
p1099
aVstory
p1100
aVguest
p1101
aVstation
p1102
aVbake
p1103
aVespecialy
p1104
aVArak
p1105
aVFresh
p1106
aVTotal
p1107
aVclear
p1108
aVcramped
p1109
aVblend
p1110
aVRotschild
p1111
aVhit
p1112
aVWifi
p1113
aVsunny
p1114
aVAnyway
p1115
aVcreme
p1116
aVavailable
p1117
aVrecently
p1118
aVsouffle
p1119
aVcrispy
p1120
aVgay
p1121
aVfrozen
p1122
aVmatch
p1123
aVBenedict
p1124
aVbeautifully
p1125
aVready
p1126
aVdecor
p1127
aVvirtually
p1128
aV9
p1129
aVassortment
p1130
aVshape
p1131
aVexcited
p1132
aVcomplaint
p1133
aVNis
p1134
aVcreation
p1135
aVphone
p1136
aVcandle
p1137
aVblock
p1138
aVYafo
p1139
aVsuit
p1140
aVforward
p1141
aVrelaxed
p1142
aVspecialty
p1143
aVconsist
p1144
aVpar
p1145
aVsimilar
p1146
aVsingle
p1147
aVEilat
p1148
aVrainy
p1149
aVMay
p1150
aVOpera
p1151
aVcater
p1152
aVutterly
p1153
aVSavior
p1154
aVpractically
p1155
aVage
p1156
aVcooked
p1157
aVyoung
p1158
aVwave
p1159
aVentire
p1160
aVjump
p1161
aVBesides
p1162
aVmanage
p1163
aVbanana-pizza
p1164
aVawesome
p1165
aVlounge
p1166
aVstone
p1167
aVinattentive
p1168
aVcarrot
p1169
aVbeny
p1170
aVestablishment
p1171
aVchocoholic
p1172
aVOne
p1173
aVbakery
p1174
aVallow
p1175
aVwhilst
p1176
aVHerzliya
p1177
aVMosley
p1178
aVadvocado
p1179
aVbufet
p1180
aVLoved
p1181
aVflee
p1182
aVSan
p1183
aVNimrod
p1184
aVpromise
p1185
aVSat
p1186
aVstrip
p1187
aVunbelievable
p1188
aVNext
p1189
aVconfess
p1190
aVAverage
p1191
aVproduce
p1192
aVLamb
p1193
aVschnitzel
p1194
aVaccompany
p1195
aVOMG
p1196
aVable
p1197
aVmix
p1198
aV=
p1199
aVsyrinx
p1200
aVmovie
p1201
aVimpression
p1202
aVParis
p1203
aVChocolat
p1204
aVjam
p1205
aVexceptional
p1206
aVoverall
p1207
aVbean
p1208
aVBecause
p1209
aVpuff
p1210
aVGet
p1211
aVyam
p1212
aVunlike
p1213
aVplain
p1214
aVdust
p1215
aVpleasantly
p1216
aVcenter
p1217
aVantipasti
p1218
aVHave
p1219
aVSunday
p1220
aVcombine
p1221
aVsofa
p1222
aVcandy
p1223
aVsoft
p1224
aVQuite
p1225
aVpepper
p1226
aVTayelet
p1227
aVsister
p1228
aVUS
p1229
aVchocoholics
p1230
aVpreviously
p1231
aVpointless
p1232
aVadditional
p1233
aVWell
p1234
aVbun
p1235
aVcount
p1236
aVdisplay
p1237
aVincredible
p1238
aVNever
p1239
aVbook
p1240
aVgelato
p1241
aVbaked
p1242
aVStrangely
p1243
aVlimited
p1244
aVmid-week
p1245
aVendulge
p1246
aVsleep
p1247
aVdietetic
p1248
aVappetite
p1249
aVruch
p1250
aVMUCH
p1251
aVEuro
p1252
aVriso
p1253
aVlure
p1254
aVCroassonerie
p1255
aVPatisserie
p1256
aVbazel
p1257
aVyellow
p1258
aVWine
p1259
aVRestaurants
p1260
aVprize
p1261
aVclientele
p1262
aVwednesday
p1263
aVBurekas
p1264
aVuncooked
p1265
aVEuropeans
p1266
aVchew
p1267
aV'Health
p1268
aVuneic
p1269
aVFortunately
p1270
aValmond
p1271
aVinsult
p1272
aV49
p1273
aV7th
p1274
aVWanting
p1275
aVair
p1276
aVProfiteroles
p1277
aV8minutes
p1278
aVInitially
p1279
aVcooking
p1280
aVPua
p1281
aVreasoning
p1282
aVUnderstaffed
p1283
aVSoggy
p1284
aVniche
p1285
aVdreadful
p1286
aVavery
p1287
aVmeh
p1288
aVpate
p1289
aVForgotten
p1290
aVpath
p1291
aV100
p1292
aVcardboard
p1293
aVcelebration
p1294
aVOutrageous
p1295
aVExtra
p1296
aVgeneraly
p1297
aVadopt
p1298
aVWonderland
p1299
aVmilitary
p1300
aVgazoz
p1301
aVgrandkids
p1302
aVappropriately
p1303
aVEmenthal
p1304
aVRather
p1305
aVseven
p1306
aVcane
p1307
aVtotal
p1308
aVExpress
p1309
aVnegative
p1310
aVDiners
p1311
aVsurvive
p1312
aVptions
p1313
aVKebab
p1314
aVsuccessful
p1315
aVStronger
p1316
aVhurt
p1317
aVCaramel
p1318
aV90
p1319
aVware
p1320
aV95
p1321
aVsmile..
p1322
aVrood
p1323
aVSmoking
p1324
aVworn
p1325
aVwhack
p1326
aVsweeter
p1327
aVexample
p1328
aVcarmel
p1329
aVvodka
p1330
aVLa
p1331
aVPositive
p1332
aVderty
p1333
aVhardens
p1334
aVgargantuan
p1335
aVSErvice
p1336
aVprovide
p1337
aVfondant
p1338
aVrevisit
p1339
aVchocolate-related
p1340
aVneveragain
p1341
aVbadly
p1342
aVlag
p1343
aVimaginable
p1344
aVWill
p1345
aVYorker
p1346
aVsummarize
p1347
aVGF
p1348
aVgrant
p1349
aVultimate
p1350
aVAnother
p1351
aVWilly
p1352
aVNonetheless
p1353
aVnamal
p1354
aVdeck
p1355
aVBaroch
p1356
aVvary
p1357
aVfabaceae
p1358
aVovel
p1359
aVUrban
p1360
aVshop/restaurant
p1361
aVcrew
p1362
aVbetter
p1363
aVcondition
p1364
aV400
p1365
aVsavory
p1366
aVpotentially
p1367
aVsplit
p1368
aVeventually
p1369
aVDiameter
p1370
aVPros
p1371
aVrunny
p1372
aVbang
p1373
aVtherapy
p1374
aVHospital
p1375
aVthet
p1376
aVRothchild
p1377
aVcapuccino
p1378
aVmeat
p1379
aVreasonably
p1380
aVFour
p1381
aVShame
p1382
aVpanini
p1383
aVchrge
p1384
aVwhim
p1385
aVWow
p1386
aVAnyone
p1387
aVmeny
p1388
aVwhiz
p1389
aVlogo
p1390
aVextract
p1391
aVsaturday
p1392
aVmisfortune
p1393
aVPart
p1394
aVwaive
p1395
aVday.
p1396
aVsparkle
p1397
aVencourage
p1398
aVis-
p1399
aVMust
p1400
aVdisinterested
p1401
aVredevelop
p1402
aVmetallicy
p1403
aVWork
p1404
aVeternal
p1405
aVenormous
p1406
aVate
p1407
aVHOUR
p1408
aVbannana
p1409
aVdiabetic
p1410
aVMore.When
p1411
aVhopeless
p1412
aVsigar
p1413
aVdaunting
p1414
aVrgular
p1415
aVfullfiling
p1416
aVgrade
p1417
aVPlease
p1418
aVGREAT
p1419
aVmisplace
p1420
aVlettuce
p1421
aVGoing
p1422
aVillustrate
p1423
aVspinach
p1424
aVMess
p1425
aVlicorice
p1426
aVapproximately
p1427
aVresponsable
p1428
aVwildly
p1429
aVgo..
p1430
aVlisten
p1431
aVhangout
p1432
aVLimited
p1433
aVhappily
p1434
aV2am
p1435
aVpeculiar
p1436
aVBeautiful
p1437
aVfrankly
p1438
aVBugrashov
p1439
aVendure
p1440
aVSea
p1441
aVAWFUL
p1442
aVrothchild
p1443
aVseed
p1444
aVmanner
p1445
aVShirel
p1446
aVchurn
p1447
aVcustomise
p1448
aVcrownded
p1449
aVsalat
p1450
aVCatering
p1451
aVhearty
p1452
aVluxury
p1453
aVhome-style
p1454
aV-some
p1455
aVthere-not
p1456
aVBrener
p1457
aVmashed
p1458
aVway.we
p1459
aVaddict
p1460
aVSide
p1461
aVJerusalem
p1462
aVaways
p1463
aVowful
p1464
aVSimply
p1465
aVtech
p1466
aVSUCKS
p1467
aVgreat..
p1468
aVsunbeam
p1469
aVincomplete
p1470
aVreserve
p1471
aVToilets
p1472
aVbeaten
p1473
aVinspire
p1474
aVaspecialy
p1475
aVaspires
p1476
aVnephew
p1477
aVEuropean
p1478
aVpainfully
p1479
aVFree
p1480
aVgood-plus
p1481
aVtheme
p1482
aVblue-haired
p1483
aVmixture
p1484
aVcolorful
p1485
aVdi
p1486
aVNevertheless
p1487
aVTurns
p1488
aVappetizer
p1489
aVLeave
p1490
aVreconstruct
p1491
aVthem..
p1492
aVSaturdays
p1493
aVrothschild
p1494
aVbay
p1495
aV'annoying
p1496
aVgrilled
p1497
aVsteak
p1498
aVfair
p1499
aVheirloom
p1500
aVnut
p1501
aVlemonade
p1502
aVresist
p1503
aVopposite
p1504
aVSydney
p1505
aVfail
p1506
aVmiserable
p1507
aVfauchon
p1508
aVhipsteresque
p1509
aVSaksuka
p1510
aVunable
p1511
aVpreserve
p1512
aVlazy
p1513
aVwinter/early
p1514
aVweak
p1515
aVignorance
p1516
aVwi
p1517
aVcamomile
p1518
aVdevour
p1519
aVyoy
p1520
aVcousin
p1521
aV115
p1522
aVuncreative
p1523
aVsheckle
p1524
aVpity
p1525
aVaccident
p1526
aVcow
p1527
aVhummus
p1528
aVHaBima
p1529
aVThough
p1530
aVunapologetically
p1531
aVTheStreets
p1532
aVSitting
p1533
aVbinge
p1534
aVstadium
p1535
aVprivilege
p1536
aVflexible
p1537
aVwebsite
p1538
aVobese
p1539
aVso-called
p1540
aVsyrops
p1541
aVrecomend
p1542
aVBirnbaum
p1543
aVcatch
p1544
aVchill
p1545
aVUpper
p1546
aVCo
p1547
aVugly
p1548
aVmelted
p1549
aVvoice
p1550
aVimagination
p1551
aVsouse
p1552
aVBusy
p1553
aVHakhayal
p1554
aVsushi
p1555
aVLOL
p1556
aVshame
p1557
aVupscale
p1558
aVil
p1559
aVgrown
p1560
aVthingy
p1561
aVCant
p1562
aVcaffe
p1563
aVharmony
p1564
aVOf
p1565
aVChutzpah
p1566
aVtoasted
p1567
aVevolve
p1568
aValittle
p1569
aVmilky
p1570
aVfood-try
p1571
aVrain
p1572
aVNOT
p1573
aVgarlic
p1574
aVTel-
p1575
aVtune
p1576
aVbutter
p1577
aVperfunctory
p1578
aVpiazza
p1579
aVunseasoned
p1580
aVcharlie
p1581
aVhumble
p1582
aVJewish
p1583
aVNahamal
p1584
aVmother
p1585
aVTrendy
p1586
aVTable
p1587
aVNahlat
p1588
aVleft
p1589
aVbellow
p1590
aVThank
p1591
aVLots
p1592
aVsleepy
p1593
aVidentify
p1594
aVBranch
p1595
aVham
p1596
aVdished
p1597
aVSpinach
p1598
aVshouk
p1599
aVpitsa
p1600
aVspread
p1601
aVwaffels
p1602
aV.though
p1603
aVpitiful
p1604
aVluscious
p1605
aVopt
p1606
aVRestaurant
p1607
aVpleanty
p1608
aVMorning
p1609
aVdiscreet
p1610
aVTel-aviv
p1611
aVbackground
p1612
aVshadow
p1613
aVrumor
p1614
aVapart
p1615
aVArt
p1616
aV58
p1617
aVpatience
p1618
aV54
p1619
aV57
p1620
aVhunt
p1621
aVspecific
p1622
aVmenues
p1623
aVoverrated
p1624
aV5+
p1625
aVwaiter/ess
p1626
aVtastefull
p1627
aVsponge
p1628
aVhassle
p1629
aVcritique
p1630
aVtrip-
p1631
aVhot/cold
p1632
aVdrink/eat
p1633
aVhumor
p1634
aVTERRIBLE
p1635
aVyummie
p1636
aVicy
p1637
aVDrinking
p1638
aVCafes
p1639
aVMe
p1640
aV*very*
p1641
aVbagle
p1642
aVdissapointment
p1643
aVUsed
p1644
aVpost
p1645
aVdiner
p1646
aVBoulevard
p1647
aVfacility
p1648
aVMake
p1649
aVhoneymoon
p1650
aVslurp
p1651
aVsou
p1652
aVsow
p1653
aVwrap
p1654
aVcafeteria
p1655
aVfrightened
p1656
aVprefere
p1657
aVSLOW
p1658
aVamazingly
p1659
aVconstantly
p1660
aVtrendi
p1661
aVCappaccino
p1662
aVgin
p1663
aVunpretentious
p1664
aVdefinatly
p1665
aVKetchup
p1666
aVstarve
p1667
aVheat
p1668
aVdessert/meal
p1669
aVLeft
p1670
aVfresh.i
p1671
aVrestaurant/chocolate
p1672
aV3.5
p1673
aVadore
p1674
aVdecorate
p1675
aVwinery
p1676
aVnahalat
p1677
aVjuvenile
p1678
aVrotisserie
p1679
aVSit
p1680
aVTremendous
p1681
aVSix
p1682
aVPurporting
p1683
aVcrumble
p1684
aVexpertise
p1685
aVpromised
p1686
aVsodas
p1687
aVphysical
p1688
aVALSO
p1689
aVAsuta
p1690
aVpicture
p1691
aVcab
p1692
aVArcafee
p1693
aVupdate
p1694
aVMelbourne
p1695
aVBlvd
p1696
aVintent
p1697
aVfaster
p1698
aVassume
p1699
aVpseudo
p1700
aVpush
p1701
aVChicken
p1702
aVyoucant
p1703
aVSituated
p1704
aVaffair
p1705
aVRotwieler
p1706
aVIan
p1707
aVGets
p1708
aVTsedek
p1709
aVrow
p1710
aVadamant
p1711
aVSfarim
p1712
aVpassage
p1713
aVenvironment
p1714
aVFacebook
p1715
aVBinyamin
p1716
aVbrown
p1717
aVThree
p1718
aVrecipe
p1719
aVPlus
p1720
aVtrouble
p1721
aVreservation-got
p1722
aVdin
p1723
aVlevel
p1724
aVmulti-location
p1725
aVaccidentally
p1726
aVsettle
p1727
aVteam
p1728
aVshave
p1729
aVunexpected
p1730
aVport.though
p1731
aVseasoning
p1732
aVbest.I
p1733
aVappear
p1734
aVcleanliness
p1735
aVfresh-out-of-the-oven
p1736
aVDuring
p1737
aVAlong
p1738
aVcornet
p1739
aVdeserts-
p1740
aVYUCK
p1741
aVBrilliant
p1742
aVmuesly
p1743
aVclerk
p1744
aVBenny
p1745
aVboast
p1746
aVMB
p1747
aVshift
p1748
aVproud
p1749
aVPooff
p1750
aVHorrendous
p1751
aVhospitality
p1752
aVMY
p1753
aVneigbourhood
p1754
aVbearable
p1755
aVWheb
p1756
aVteenage
p1757
aVkebab
p1758
aVextra
p1759
aVbasel
p1760
aVRoladin
p1761
aVTherefore
p1762
aVsmallish
p1763
aVeverybody
p1764
aVbite-
p1765
aVBazel
p1766
aVsake
p1767
aVangry
p1768
aVFelt
p1769
aVvariously
p1770
aVLunch
p1771
aVstomach
p1772
aVPity
p1773
aVacceptable
p1774
aVcashier
p1775
aVdrown
p1776
aVstain
p1777
aVchochlate
p1778
aVFair
p1779
aVcar
p1780
aVpretend
p1781
aVcat
p1782
aVmoccachino
p1783
aVmeatball
p1784
aVconfused
p1785
aVcounting
p1786
aVWho
p1787
aVdifferents
p1788
aVoffice
p1789
aVsuck
p1790
aVHubby
p1791
aVgrow
p1792
aVjoint
p1793
aVexplicit
p1794
aVmango
p1795
aVtruck
p1796
aVtahini
p1797
aVport.They
p1798
aVserving
p1799
aVfeature
p1800
aVhachayal
p1801
aVONE
p1802
aVShops
p1803
aVCup
p1804
aVvicinity
p1805
aVstroll
p1806
aVWorld
p1807
aVtomorow
p1808
aVinstantly
p1809
aVtonic
p1810
aVAVOID
p1811
aVChoices
p1812
aVgood-Buy
p1813
aVRome
p1814
aVTower
p1815
aVterm
p1816
aVdrop
p1817
aVavailble
p1818
aVafternoon/evening
p1819
aVsugary
p1820
aVsquare
p1821
aVBeat-it
p1822
aVsweetthooth
p1823
aVcontainer
p1824
aVstumble
p1825
aVsomeplace
p1826
aVseriously
p1827
aVpizzeria
p1828
aVPlaced
p1829
aVunfriendly
p1830
aVAubergine
p1831
aVImpossible
p1832
aVTlV
p1833
aVlanguage
p1834
aVyup
p1835
aVsouce
p1836
aVHarbour
p1837
aVfunky
p1838
aVyum
p1839
aVmassive
p1840
aVchildhood
p1841
aV1000
p1842
aVchocolatier
p1843
aVsock
p1844
aVNehama
p1845
aVfi
p1846
aVcarry
p1847
aVimpossible
p1848
aVring
p1849
aVENJOY
p1850
aVsheer
p1851
aVchoclolate
p1852
aVplastic
p1853
aVSuch
p1854
aVseason
p1855
aVbuth
p1856
aVaftertaste
p1857
aV13
p1858
aV17
p1859
aVGaterie
p1860
aVpoisoning
p1861
aVkikar
p1862
aVgathering
p1863
aVnicer
p1864
aVPhiladelphia
p1865
aVsad
p1866
aVPaying
p1867
aVoffering
p1868
aVnoty
p1869
aVhotspot
p1870
aVzoo
p1871
aVrepeatedly
p1872
aVHalf
p1873
aVchocolate-based
p1874
aV200
p1875
aVmultiple
p1876
aVdeafening
p1877
aVtrace
p1878
aVnormal
p1879
aVcheesecake
p1880
aVtoooo
p1881
aVassault
p1882
aVimportantly
p1883
aVfellafel
p1884
aVmicrowaved
p1885
aVicon
p1886
aVsurprising
p1887
aVcrooked
p1888
aVbarman
p1889
aVoily
p1890
aVprofessional
p1891
aVquantity
p1892
aVrating
p1893
aVlotus
p1894
aVloveat
p1895
aVtend
p1896
aVshoo
p1897
aVunkind
p1898
aVWo
p1899
aVSTARTS
p1900
aVcrime
p1901
aVexplicitly
p1902
aVstaff-fast
p1903
aVchoise
p1904
aVpices
p1905
aV9-Beach
p1906
aVassistant
p1907
aVexpectation
p1908
aVSardona
p1909
aVbagles
p1910
aVsouflfe
p1911
aVsavoury
p1912
aVprime
p1913
aVundertone
p1914
aVtortilla
p1915
aVoother
p1916
aVparking
p1917
aVcocktaily
p1918
aVcauliflower
p1919
aV24/7
p1920
aVdefinite
p1921
aVThan
p1922
aVwhipped
p1923
aVreactant
p1924
aVparent
p1925
aVscreen
p1926
aVsupermarket
p1927
aVReasonable
p1928
aVEach
p1929
aVPlus-
p1930
aVarticle
p1931
aVlevinsky
p1932
aVisrael-
p1933
aVtuck
p1934
aVetc.
p1935
aVcafes
p1936
aVrestroom
p1937
aVtour
p1938
aVrailway
p1939
aVnearby
p1940
aVduty
p1941
aVGvirol
p1942
aVperiod
p1943
aVcoma
p1944
aVexpresso
p1945
aV64
p1946
aV66
p1947
aVcancel
p1948
aV69
p1949
aVcaring
p1950
aVWHOLE
p1951
aVmezze
p1952
aVclassic
p1953
aVvacation
p1954
aVcassis
p1955
aV18:00
p1956
aVKnown
p1957
aVSt.
p1958
aVhardly
p1959
aVenable
p1960
aVsquash
p1961
aVhaunt
p1962
aVwake
p1963
aVOverrated
p1964
aVWAS
p1965
aVBagel
p1966
aVBaruch
p1967
aVfirst-timers
p1968
aVworried
p1969
aVwarning
p1970
aVjoke
p1971
aVsituation
p1972
aVOpen
p1973
aVFactory
p1974
aVobnoxious
p1975
aVeveryday
p1976
aVworry
p1977
aVdoctor
p1978
aV..teh
p1979
aVsketchy
p1980
aVconsumer
p1981
aVThroughout
p1982
aVinoffensive
p1983
aVpan
p1984
aVberry
p1985
aV1950s
p1986
aVrefusal
p1987
aVwolrd
p1988
aVloarge
p1989
aVSoup
p1990
aVLasagna
p1991
aVClean
p1992
aVlemon
p1993
aVIF
p1994
aValltogether
p1995
aVIs
p1996
aVyhe
p1997
aVCarlton
p1998
aVbottle
p1999
aVtaxi
p2000
aVneon
p2001
aVlaptop-free
p2002
aVAntipathetic
p2003
aVkill
p2004
aVfounde
p2005
aVMight
p2006
aVoccasional
p2007
aVgather
p2008
aVdeath
p2009
aVcm
p2010
aVhint
p2011
aVthinking
p2012
aVchoclaty
p2013
aVblog
p2014
aVextensive
p2015
aVkingdom
p2016
aVfrown
p2017
aVMany
p2018
aVtraffic
p2019
aVBazelet
p2020
aVexecution
p2021
aVhaphazardly
p2022
aVShop
p2023
aVmargarine
p2024
aVLondon
p2025
aVnose
p2026
aVtower
p2027
aVBefore
p2028
aVfulfil
p2029
aVdesided
p2030
aVpickled
p2031
aVdivine
p2032
aVexcelent
p2033
aV14:00
p2034
aVconfirm
p2035
aVtube
p2036
aVassemble
p2037
aVre-done
p2038
aVbraught
p2039
aV60cc
p2040
aVexciting
p2041
aVPlaying
p2042
aVom
p2043
aVstaff-
p2044
aVod
p2045
aVinviting
p2046
aVfudgie
p2047
aVchop
p2048
aVpistachio
p2049
aVbonus-nice
p2050
aVluck
p2051
aVlocally
p2052
aVcoupon
p2053
aVAdd
p2054
aVlively
p2055
aVreservation
p2056
aVskillet
p2057
aVweeknight
p2058
aVstrictly
p2059
aVlol
p2060
aVlounging
p2061
aVpoliteness
p2062
aVhamedina
p2063
aVdelicious-
p2064
aVfoam
p2065
aVallergic
p2066
aVrelic
p2067
aVgroan
p2068
aVfanatic
p2069
aVdefrost
p2070
aVregard
p2071
aVHasharon
p2072
aVIrael-chic
p2073
aVbuying
p2074
aVfootball
p2075
aVpull
p2076
aVstrawberry
p2077
aVouting
p2078
aVSpecial
p2079
aVad
p2080
aVdeep
p2081
aVgeneral
p2082
aVHot
p2083
aVGorgeous
p2084
aVmovet
p2085
aVunwelcome
p2086
aVCulinar
p2087
aVRead
p2088
aV2000
p2089
aVrubber
p2090
aVbackgammon
p2091
aVBirenbaum
p2092
aVtepd
p2093
aVLady
p2094
aVdisgraceful
p2095
aVLas
p2096
aVoneself
p2097
aVseparate
p2098
aVpeak
p2099
aVMilky
p2100
aVMexican
p2101
aVLandwer
p2102
aV3-4
p2103
aVmash
p2104
aVPinkas
p2105
aVrepresent
p2106
aVvile
p2107
aVdollar
p2108
aVFlea-market
p2109
aVexecuting
p2110
aVtHe
p2111
aV.escorted
p2112
aVTAV
p2113
aVhot-chocolates
p2114
aVlaid
p2115
aVsparkling
p2116
aVdairy
p2117
aVWonka
p2118
aV14
p2119
aVYaffo
p2120
aVunsatisfying
p2121
aVnite
p2122
aVtalk-
p2123
aVsong
p2124
aVfat
p2125
aVfab
p2126
aVimprove
p2127
aVTired
p2128
aVlaud
p2129
aVcookies
p2130
aVted
p2131
aVtee
p2132
aVinvention
p2133
aVcasual
p2134
aV.the
p2135
aVDelizie
p2136
aVTried
p2137
aVclock
p2138
aVcaffeine
p2139
aVToday
p2140
aVp.m.
p2141
aVBarista
p2142
aVCharlie
p2143
aVsupposedly
p2144
aVstreet-
p2145
aVstrong
p2146
aVAGREE
p2147
aVsquashy
p2148
aVfatter
p2149
aVIgnore
p2150
aVsearch
p2151
aVCons
p2152
aV09.30
p2153
aVAbsolutely
p2154
aVlasagne
p2155
aVairport
p2156
aVCans
p2157
aVaction
p2158
aVnarrow
p2159
aVsufle
p2160
aVreclaimed
p2161
aVsuddenly
p2162
aVexpenseive
p2163
aVindoors
p2164
aVTruly
p2165
aVselect
p2166
aVconventional
p2167
aVeye
p2168
aVdistinct
p2169
aVdestination
p2170
aVpearl
p2171
aVcompensate
p2172
aV47NIS
p2173
aVbinyamin
p2174
aVTal
p2175
aVflat
p2176
aVimmersion
p2177
aVMash
p2178
aVflag
p2179
aVHebrwe
p2180
aVcomepare
p2181
aVparticular
p2182
aVknown
p2183
aVFound
p2184
aVdry.so
p2185
aVpretense
p2186
aVComfortable
p2187
aVTonight
p2188
aVdidn't.We
p2189
aVmale
p2190
aVmarble
p2191
aVminimum
p2192
aVsalty
p2193
aVimitation
p2194
aVsense
p2195
aVmnts
p2196
aVdress
p2197
aVRotchild
p2198
aV5.5
p2199
aVfreshly
p2200
aVbuzzword
p2201
aVcreature
p2202
aVplant
p2203
aVokay
p2204
aVrecived
p2205
aVadvice
p2206
aVreflect
p2207
aVlighting
p2208
aVinvasion
p2209
aVsloppy
p2210
aVresponse
p2211
aVmitzvah
p2212
aVSweet
p2213
aVshady
p2214
aVovernight
p2215
aVBrennar
p2216
aVshade
p2217
aVvintage
p2218
aVslush
p2219
aVmexican
p2220
aVSame
p2221
aVdough
p2222
aVNicoise
p2223
aVhell
p2224
aVclumsily
p2225
aVok.
p2226
aVVisiting
p2227
aV22
p2228
aVAvivians
p2229
aVKeep
p2230
aV..that
p2231
aVEVERY
p2232
aVastonish
p2233
aVpesto
p2234
aVPasta
p2235
aVBad
p2236
aVrank
p2237
aVcompound
p2238
aVOff
p2239
aVeasily
p2240
aVpregnant
p2241
aVfully
p2242
aVLaptop
p2243
aVZedek
p2244
aVmicro
p2245
aVdeffinately
p2246
aV1am
p2247
aVupstairs
p2248
aVweight
p2249
aVWaiting
p2250
aVsurly
p2251
aVevent
p2252
aValcohol
p2253
aVchocaholic
p2254
aVordred
p2255
aVgranola
p2256
aVfountain
p2257
aV7
p2258
aVparadise
p2259
aVbrewery
p2260
aVCool
p2261
aVsarona
p2262
aVbistro
p2263
aVdirt
p2264
aVfriday
p2265
aVsidewalk
p2266
aVscathing
p2267
aV..just
p2268
aVFantastic
p2269
aVlaunch
p2270
aVHatachana
p2271
aVaudacity
p2272
aVw
p2273
aVbelgin
p2274
aVmiso
p2275
aVHuge
p2276
aVdine
p2277
aVradical
p2278
aVfancy
p2279
aVit`s
p2280
aVkobe
p2281
aVintroduction
p2282
aVcomfy
p2283
aVcoctails
p2284
aVpark
p2285
aVimmediate
p2286
aVluckily
p2287
aVb
p2288
aVkindly
p2289
aVdouble
p2290
aVrememberd
p2291
aVsth
p2292
aVoutrageous
p2293
aVexpress
p2294
aVStarter
p2295
aVoutdoors
p2296
aVNowadays
p2297
aVremembers
p2298
aVTraditionally
p2299
aVwasnt
p2300
aVGod
p2301
aVorderd
p2302
aVwaft
p2303
aVsubstantial
p2304
aVGot
p2305
aVthought
p2306
aVself
p2307
aVmenu-breakfast
p2308
aVcouch
p2309
aVGalilee
p2310
aVzucchine
p2311
aVWith
p2312
aVAte
p2313
aVself-serve
p2314
aVperfomance
p2315
aVDizengoff
p2316
aVaircondition
p2317
aVplan
p2318
aV5-7
p2319
aVcover
p2320
aVrefrigirated
p2321
aVId
p2322
aVPelter
p2323
aVgold
p2324
aVNonchalant
p2325
aVconverge
p2326
aVburrata
p2327
aVcrayon
p2328
aVchoco
p2329
aVSpicy
p2330
aVnorthern
p2331
aVruin
p2332
aVHaHayal
p2333
aVCiabatta
p2334
aVcentral
p2335
aVfiend
p2336
aVeveryone-from
p2337
aVcoffee/tea
p2338
aV68
p2339
aVbatter
p2340
aVreplenish
p2341
aVdose
p2342
aVappeal
p2343
aVboard
p2344
aVcaramel
p2345
aVhype
p2346
aVart
p2347
aVDecent
p2348
aVindividual
p2349
aVFounders
p2350
aVNeither
p2351
aVexebition
p2352
aV2.5
p2353
aVbarn
p2354
aV#
p2355
aVMarkets
p2356
aVexchange
p2357
aVweekly
p2358
aVnumerous
p2359
aVFew
p2360
aVsole
p2361
aVServes
p2362
aVspray
p2363
aVlatkes
p2364
aVpremise
p2365
aVcornetto
p2366
aVmega
p2367
aVbarely
p2368
aVdeclare
p2369
aVroman
p2370
aVeggplant
p2371
aVVahezi
p2372
aVYum
p2373
aVYes
p2374
aVsuburbans
p2375
aVCroassons
p2376
aVconsume
p2377
aVdietary
p2378
aVWay
p2379
aVimprovement
p2380
aVprofiterole
p2381
aVstamp
p2382
aVrubbery
p2383
aVmeeting
p2384
aVDegrade
p2385
aVEspecially
p2386
aVshashuka
p2387
aVflavorful
p2388
aVCasino
p2389
aVmannered
p2390
aVdemand
p2391
aVgad
p2392
aVDidnt
p2393
aVloom
p2394
aVpedestrian
p2395
aVstraight
p2396
aVgrainy
p2397
aVsesame
p2398
aVcan`t
p2399
aVpound
p2400
aVvacate
p2401
aVrip
p2402
aVkishes
p2403
aVleaving
p2404
aVmins
p2405
aV'regualr
p2406
aVboxes..
p2407
aVbelong
p2408
aV3.65
p2409
aVwierd
p2410
aVgrand
p2411
aVadvise
p2412
aVcholate
p2413
aV.unfortunately
p2414
aVShabbat
p2415
aVcappucino
p2416
aVcigar
p2417
aVtribble
p2418
aVmoment
p2419
aVShavuot
p2420
aVcucumber
p2421
aVadvertise
p2422
aVstack
p2423
aVrecent
p2424
aVAlmost
p2425
aVhalva
p2426
aVobviously
p2427
aVcranky
p2428
aVbouffet
p2429
aVtast
p2430
aVhome-make
p2431
aVConsidering
p2432
aVroaster
p2433
aVicecreame
p2434
aVJasmine
p2435
aVHorribly
p2436
aVmorsel
p2437
aVCofix
p2438
aVatrocious
p2439
aVWonderful
p2440
aVInternet
p2441
aVreviewer
p2442
aValternative
p2443
aVdrizzled
p2444
aVlady
p2445
aVChocolata
p2446
aVcuz
p2447
aVAsian-style
p2448
aVprominent
p2449
aVbin
p2450
aVLast
p2451
aVOh
p2452
aVDid
p2453
aVgame
p2454
aVprivate
p2455
aVVegee
p2456
aVWaited
p2457
aVonion
p2458
aVconfront
p2459
aVcreaminess
p2460
aVentice
p2461
aVfoolish
p2462
aVgardening
p2463
aV-Nemal
p2464
aVspring
p2465
aVmarmalade
p2466
aVpricing
p2467
aVsight
p2468
aVmirror
p2469
aVfalafel
p2470
aVMehadrin
p2471
aVontop
p2472
aVMizra
p2473
aVfaktory
p2474
aVdishwas
p2475
aVbenefit
p2476
aVbehave
p2477
aVimbue
p2478
aVtemple
p2479
aVSocializing
p2480
aVstew
p2481
aVFruits
p2482
aVmajor
p2483
aVaswell
p2484
aVgoody
p2485
aVdelish
p2486
aVunimpressed
p2487
aVexperince
p2488
aVMediocre
p2489
aVTzamaret
p2490
aVletter
p2491
aVsmelly
p2492
aVprimarily
p2493
aVproportional
p2494
aVdownhill
p2495
aVNormal
p2496
aVspending
p2497
aVfluctuate
p2498
aVquestion
p2499
aVspecifically
p2500
aVoccupy
p2501
aVMuesli
p2502
aVCome
p2503
aV.I
p2504
aVWeizmann
p2505
aVbore
p2506
aVDeals
p2507
aVcloth
p2508
aVcompetition
p2509
aVlow-quality
p2510
aVgrind.The
p2511
aVAwesome
p2512
aVExcelent
p2513
aVmushy
p2514
aVhighlight
p2515
aVBanan
p2516
aVbell
p2517
aVrepulse
p2518
aVmeal-
p2519
aVsupervisor
p2520
aVworthwhile
p2521
aVDont
p2522
aVMcdonald
p2523
aVlikewise
p2524
aVChocolates
p2525
aVentrance
p2526
aVdisappoints
p2527
aVresto-cafe
p2528
aVpeace
p2529
aVHaSharon
p2530
aVaccross
p2531
aVforgo
p2532
aVJaffa-Jerusalem
p2533
aVGurion
p2534
aVtart
p2535
aVenergetic
p2536
aVoblige
p2537
aVkiosk
p2538
aVsmiley
p2539
aVbianca
p2540
aVWarmly
p2541
aVAh
p2542
aVgr8
p2543
aVcake.it
p2544
aVApparently
p2545
aVhello
p2546
aVEarlier
p2547
aVBased
p2548
aVbaruch
p2549
aVenjoyable
p2550
aVsuckao
p2551
aVbvd
p2552
aVAngelina
p2553
aVuniqueness
p2554
aVWords
p2555
aVsens
p2556
aVdislike
p2557
aVannoy
p2558
aVBig
p2559
aVgarden
p2560
aVRiyad
p2561
aVHanukkah
p2562
aVfacebook
p2563
aVdrinking
p2564
aVGazoz
p2565
aV.clean
p2566
aVrelation
p2567
aVhavent
p2568
aVpolenta
p2569
aVcrow
p2570
aVREALLY
p2571
aVbooth
p2572
aVuncomfortable
p2573
aVsausage
p2574
aVover-run
p2575
aVSHAKSHUKA
p2576
aVunsynchronized
p2577
aVfwirh
p2578
aVunhelpful
p2579
aVconsistently
p2580
aVrotten
p2581
aVvega
p2582
aVinfuse
p2583
aVAmerica
p2584
aVTapas
p2585
aVscenery
p2586
aVleg
p2587
aVcleanish
p2588
aVObviously
p2589
aVCreates
p2590
aVPrior
p2591
aVexplore
p2592
aVeverything-
p2593
aVsexy
p2594
aVTsomet
p2595
aVextreme
p2596
aVSelection
p2597
aVPalace
p2598
aV32
p2599
aVcasino
p2600
aVmosquito
p2601
aVweekday
p2602
aVmindblowing
p2603
aVmaker
p2604
aVapple
p2605
aVforbid
p2606
aVapt
p2607
aVNaamal
p2608
aVFB
p2609
aVapply
p2610
aVchilly
p2611
aVstaple
p2612
aVSarona
p2613
aVchocolatey
p2614
aVthirsty
p2615
aVthrow
p2616
aVBasically
p2617
aVDrak
p2618
aVsort
p2619
aVupcoming
p2620
aVimpress
p2621
aVlatke
p2622
aVGelateria
p2623
aVbaby
p2624
aVverity
p2625
aVtad
p2626
aVALL
p2627
aVpour
p2628
aV'no
p2629
aVdonut
p2630
aVpraise
p2631
aVclosing
p2632
aVtap
p2633
aVpatron
p2634
aVhiatus
p2635
aVsyrupy
p2636
aVblvd
p2637
aVtamper
p2638
aVpatronize
p2639
aVdelay
p2640
aVvaries
p2641
aV.Excellent
p2642
aVtoddler
p2643
aVmiracoulus
p2644
aVwallpaper
p2645
aVunforgivable
p2646
aVoverdress
p2647
aVbudge
p2648
aVMiddle
p2649
aVhonestly
p2650
aVallot
p2651
aVtakeaway
p2652
aVmartini
p2653
aVneglect
p2654
aVsoggy
p2655
aVhand-
p2656
aVknowledgable
p2657
aVsymbols
p2658
aVenclose
p2659
aVneurotic
p2660
aVle
p2661
aVTA
p2662
aVRAN
p2663
aVBuffet
p2664
aV2014
p2665
aVAttentive
p2666
aVCaesars
p2667
aVIbn
p2668
aVDim
p2669
aVkindness
p2670
aVnapkin
p2671
aV10pm
p2672
aVrisotto
p2673
aVdelightful
p2674
aVtruth
p2675
aVEXCELLENT
p2676
aVerratic
p2677
aVexperienced
p2678
aVFrom
p2679
aVtel-avivian
p2680
aVburekas
p2681
aVdipping
p2682
aVchic-est
p2683
aVsubsistuted
p2684
aVWhich
p2685
aVOily
p2686
aVcategory
p2687
aVbag
p2688
aVA.M.
p2689
aVAlways
p2690
aVcause
p2691
aVred
p2692
aVo.k
p2693
aVawait
p2694
aVumbrella
p2695
aVapologetically
p2696
aVFalafel
p2697
aVhard-to-keep
p2698
aVFirstly
p2699
aVembarrass
p2700
aVAnita
p2701
aVscary
p2702
aVconversation
p2703
aVhotchocolate
p2704
aVEnjoyed
p2705
aVEnticing
p2706
aVelse.i
p2707
aVLame
p2708
aVblowe
p2709
aVtzar
p2710
aVvery-very-very
p2711
aVfloral
p2712
aVsubmit
p2713
aVNaturally
p2714
aVsadly
p2715
aVordering
p2716
aVArlozorov
p2717
aVtouristy
p2718
aVperfectly
p2719
aVfinal
p2720
aVcabin
p2721
aV12-14
p2722
aVPlenty
p2723
aVshelf
p2724
aVapologise
p2725
aVsporadically
p2726
aVdiminish
p2727
aVBerger
p2728
aVliquid
p2729
aVbed
p2730
aVrate
p2731
aVtabs
p2732
aVtidy
p2733
aVOther
p2734
aVsundown
p2735
aV50/60
p2736
aVafraid
p2737
aVangle
p2738
aVona
p2739
aVsevice
p2740
aVYehuda/
p2741
aVtactic
p2742
aVworldwide
p2743
aVsounds.great
p2744
aVvarity
p2745
aVAsked
p2746
aVprove
p2747
aV24
p2748
aVrefreshing
p2749
aVLemonade
p2750
aVBfaol
p2751
aVbrew
p2752
aVnormally
p2753
aVoverrate
p2754
aVstove
p2755
aVWorth
p2756
aVdecade
p2757
aVMeanwhile
p2758
aVjar
p2759
aVbug
p2760
aVsurroundings
p2761
aVgirlie
p2762
aVregularly
p2763
aVlikely
p2764
aVSonoma
p2765
aVtiming
p2766
aVTHE
p2767
aVsmash
p2768
aVForget
p2769
aVshy
p2770
aVfridge
p2771
aVgram
p2772
aVfixed
p2773
aVrequirement
p2774
aVinventive
p2775
aVexists
p2776
aVpacket
p2777
aVfreeze
p2778
aVdesperate
p2779
aVlocation-busting
p2780
aVpacked
p2781
aVLasangniyas
p2782
aVcloser
p2783
aVwipped
p2784
aVclearing
p2785
aVnightmare
p2786
aVhorribly
p2787
aVKachol
p2788
aVsuperb
p2789
aVicecream
p2790
aVstate
p2791
aVs-l-o-w.
p2792
aVexellent
p2793
aVemail
p2794
aVspeed
p2795
aVKitchen
p2796
aVTLV-Jaffa
p2797
aVForum
p2798
aV*raw*
p2799
aVjoy
p2800
aVLandwers
p2801
aVdeliver
p2802
aVtoting
p2803
aVjob
p2804
aVcomplicate
p2805
aV930pm
p2806
aVempathy
p2807
aVtlv
p2808
aVHayarkon
p2809
aVincident
p2810
aVdoorway
p2811
aVswim
p2812
aVswallow
p2813
aVestimation
p2814
aVcomment
p2815
aVbreakfast/brunch
p2816
aV'warmers
p2817
aVFinally
p2818
aVplace.service
p2819
aVMusic
p2820
aV600
p2821
aVrusty
p2822
aVSalmon
p2823
aVnon-professional
p2824
aVa-m-a-z-i-n-g.
p2825
aVrich-
p2826
aVrestaurant/bakery
p2827
aVThursday
p2828
aVfellow
p2829
aVappetising
p2830
aVFondo
p2831
aVpretentious
p2832
aV2013
p2833
aVfault
p2834
aV2007
p2835
aVfrustrating
p2836
aVAny
p2837
aV~
p2838
aVmutant
p2839
aVav
p2840
aVsurprisingly
p2841
aVripp
p2842
aVoptimistic
p2843
aVPretty
p2844
aVclaimed
p2845
aVShabazi
p2846
aVOrders
p2847
aVconnection
p2848
aVmember
p2849
aVOmelet
p2850
aVeclectic
p2851
aVdifficult
p2852
aVGreg
p2853
aVmagician
p2854
aVOrder
p2855
aVmoney.Since
p2856
aVmasochist
p2857
aVacknowledgement
p2858
aVALWAYS
p2859
aVflummox
p2860
aVofr
p2861
aVcommand
p2862
aVNeed
p2863
aVposition
p2864
aVmuscle
p2865
aVLOVED
p2866
aVrefer
p2867
aVproximity
p2868
aVpistacchio
p2869
aVinterim
p2870
aVearshot
p2871
aVdinning
p2872
aVwen
p2873
aVbench
p2874
aVBu
p2875
aVattractive
p2876
aVadn
p2877
aVteriyaki
p2878
aVkick
p2879
aVSalad
p2880
aVJaffo
p2881
aVBelow
p2882
aVimmediately
p2883
aVPastries
p2884
aVCookies
p2885
aVincredibly
p2886
aVfinnish
p2887
aVB.
p2888
aV11pm
p2889
aVDesserts
p2890
aVpage
p2891
aVheel
p2892
aVfettuccini
p2893
aVhail
p2894
aV12pm
p2895
aVSut
p2896
aVvetables
p2897
aVproper
p2898
aVself-prepared
p2899
aVhappens
p2900
aVtrust
p2901
aVtruffle
p2902
aVcomical
p2903
aVnoise
p2904
aVaweful-
p2905
aVinaccurate
p2906
aVderserts
p2907
aVshoko
p2908
aVsnapper
p2909
aVworthy
p2910
aVpaste
p2911
aVbeaker
p2912
aVrare
p2913
aVsmartly
p2914
aVbiscuit
p2915
aVsumer
p2916
aVeddible
p2917
aViPads
p2918
aV-MOLD
p2919
aVOpened
p2920
aVel
p2921
aVbarrista
p2922
aVshoppy
p2923
aVTwo
p2924
aVcocoa
p2925
aVbureakas
p2926
aVbrush
p2927
aVpervious
p2928
aVquest
p2929
aVUpon
p2930
aVVegan
p2931
aVbump
p2932
aVVegas
p2933
aVtepid
p2934
aVdamn
p2935
aVNovember
p2936
aVvat
p2937
aVnorth
p2938
aVextended
p2939
aVcusomer
p2940
aVhi
p2941
aVho
p2942
aVliquor
p2943
aVsheckel
p2944
aVear
p2945
aVcoffee.No
p2946
aVpartially
p2947
aVfellow-patrons
p2948
aVevident
p2949
aVGreen
p2950
aVdistract
p2951
aV250
p2952
aVexcruciatingly
p2953
aVwifi
p2954
aVsirloin
p2955
aVregularily
p2956
aVpig
p2957
aVboardwalk
p2958
aVCaffe
p2959
aV21.00
p2960
aVshooting
p2961
aVfettuccine
p2962
aVLiquid
p2963
aV48
p2964
aV46
p2965
aVpercent
p2966
aVdishes-my
p2967
aV41
p2968
aVFive
p2969
aVwitness
p2970
aVwing
p2971
aVIsareli
p2972
aVLike
p2973
aVecstatic
p2974
aVTWO
p2975
aVsooooo
p2976
aVfreazer
p2977
aVkosherout
p2978
aVshrank
p2979
aV25.00
p2980
aVappoint
p2981
aVcoffee/
p2982
aVlukewarm
p2983
aVOrderd
p2984
aVrule
p2985
aVamazimg
p2986
aVannouncer
p2987
aVunder-cooked
p2988
aVnuked
p2989
aVPhilly
p2990
aVboutique
p2991
aVliver
p2992
a.